	.module NO2.C
	.area text(rom, con, rel)
	.dbfile D:\Proteus\Proteus练习\新建文件夹\NO2.C
	.area data(ram, con, rel)
	.dbfile D:\Proteus\Proteus练习\新建文件夹\NO2.C
_time_logo::
	.blkb 2
	.area idata
	.byte 0,252
	.area data(ram, con, rel)
	.dbfile D:\Proteus\Proteus练习\新建文件夹\NO2.C
	.blkb 2
	.area idata
	.byte 'D,'D
	.area data(ram, con, rel)
	.dbfile D:\Proteus\Proteus练习\新建文件夹\NO2.C
	.blkb 2
	.area idata
	.byte 'D,252
	.area data(ram, con, rel)
	.dbfile D:\Proteus\Proteus练习\新建文件夹\NO2.C
	.blkb 2
	.area idata
	.byte 16,144
	.area data(ram, con, rel)
	.dbfile D:\Proteus\Proteus练习\新建文件夹\NO2.C
	.blkb 2
	.area idata
	.byte 16,16
	.area data(ram, con, rel)
	.dbfile D:\Proteus\Proteus练习\新建文件夹\NO2.C
	.blkb 2
	.area idata
	.byte 16,255
	.area data(ram, con, rel)
	.dbfile D:\Proteus\Proteus练习\新建文件夹\NO2.C
	.blkb 2
	.area idata
	.byte 16,16
	.area data(ram, con, rel)
	.dbfile D:\Proteus\Proteus练习\新建文件夹\NO2.C
	.blkb 2
	.area idata
	.byte 16,0
	.area data(ram, con, rel)
	.dbfile D:\Proteus\Proteus练习\新建文件夹\NO2.C
	.blkb 2
	.area idata
	.byte 0,7
	.area data(ram, con, rel)
	.dbfile D:\Proteus\Proteus练习\新建文件夹\NO2.C
	.blkb 2
	.area idata
	.byte 4,4
	.area data(ram, con, rel)
	.dbfile D:\Proteus\Proteus练习\新建文件夹\NO2.C
	.blkb 2
	.area idata
	.byte 4,7
	.area data(ram, con, rel)
	.dbfile D:\Proteus\Proteus练习\新建文件夹\NO2.C
	.blkb 2
	.area idata
	.byte 0,0
	.area data(ram, con, rel)
	.dbfile D:\Proteus\Proteus练习\新建文件夹\NO2.C
	.blkb 2
	.area idata
	.byte 3,64
	.area data(ram, con, rel)
	.dbfile D:\Proteus\Proteus练习\新建文件夹\NO2.C
	.blkb 2
	.area idata
	.byte 128,127
	.area data(ram, con, rel)
	.dbfile D:\Proteus\Proteus练习\新建文件夹\NO2.C
	.blkb 2
	.area idata
	.byte 0,0
	.area data(ram, con, rel)
	.dbfile D:\Proteus\Proteus练习\新建文件夹\NO2.C
	.blkb 2
	.area idata
	.byte 0,0
	.area data(ram, con, rel)
	.dbfile D:\Proteus\Proteus练习\新建文件夹\NO2.C
	.blkb 2
	.area idata
	.byte 64,176
	.area data(ram, con, rel)
	.dbfile D:\Proteus\Proteus练习\新建文件夹\NO2.C
	.blkb 2
	.area idata
	.byte 146,150
	.area data(ram, con, rel)
	.dbfile D:\Proteus\Proteus练习\新建文件夹\NO2.C
	.blkb 2
	.area idata
	.byte 154,146
	.area data(ram, con, rel)
	.dbfile D:\Proteus\Proteus练习\新建文件夹\NO2.C
	.blkb 2
	.area idata
	.byte 242,158
	.area data(ram, con, rel)
	.dbfile D:\Proteus\Proteus练习\新建文件夹\NO2.C
	.blkb 2
	.area idata
	.byte 146,145
	.area data(ram, con, rel)
	.dbfile D:\Proteus\Proteus练习\新建文件夹\NO2.C
	.blkb 2
	.area idata
	.byte 153,149
	.area data(ram, con, rel)
	.dbfile D:\Proteus\Proteus练习\新建文件夹\NO2.C
	.blkb 2
	.area idata
	.byte 145,'P
	.area data(ram, con, rel)
	.dbfile D:\Proteus\Proteus练习\新建文件夹\NO2.C
	.blkb 2
	.area idata
	.byte 48,0
	.area data(ram, con, rel)
	.dbfile D:\Proteus\Proteus练习\新建文件夹\NO2.C
	.blkb 2
	.area idata
	.byte 0,0
	.area data(ram, con, rel)
	.dbfile D:\Proteus\Proteus练习\新建文件夹\NO2.C
	.blkb 2
	.area idata
	.byte 64,48
	.area data(ram, con, rel)
	.dbfile D:\Proteus\Proteus练习\新建文件夹\NO2.C
	.blkb 2
	.area idata
	.byte 140,131
	.area data(ram, con, rel)
	.dbfile D:\Proteus\Proteus练习\新建文件夹\NO2.C
	.blkb 2
	.area idata
	.byte 'F,42
	.area data(ram, con, rel)
	.dbfile D:\Proteus\Proteus练习\新建文件夹\NO2.C
	.blkb 2
	.area idata
	.byte 18,42
	.area data(ram, con, rel)
	.dbfile D:\Proteus\Proteus练习\新建文件夹\NO2.C
	.blkb 2
	.area idata
	.byte 38,'B
	.area data(ram, con, rel)
	.dbfile D:\Proteus\Proteus练习\新建文件夹\NO2.C
	.blkb 2
	.area idata
	.byte 192,64
	.area data(ram, con, rel)
	.dbfile D:\Proteus\Proteus练习\新建文件夹\NO2.C
	.blkb 2
	.area idata
	.byte 0,0
	.area data(ram, con, rel)
	.dbfile D:\Proteus\Proteus练习\新建文件夹\NO2.C
	.blkb 2
	.area idata
	.byte 64,32
	.area data(ram, con, rel)
	.dbfile D:\Proteus\Proteus练习\新建文件夹\NO2.C
	.blkb 2
	.area idata
	.byte 248,7
	.area data(ram, con, rel)
	.dbfile D:\Proteus\Proteus练习\新建文件夹\NO2.C
	.blkb 2
	.area idata
	.byte 64,32
	.area data(ram, con, rel)
	.dbfile D:\Proteus\Proteus练习\新建文件夹\NO2.C
	.blkb 2
	.area idata
	.byte 24,15
	.area data(ram, con, rel)
	.dbfile D:\Proteus\Proteus练习\新建文件夹\NO2.C
	.blkb 2
	.area idata
	.byte 8,200
	.area data(ram, con, rel)
	.dbfile D:\Proteus\Proteus练习\新建文件夹\NO2.C
	.blkb 2
	.area idata
	.byte 8,8
	.area data(ram, con, rel)
	.dbfile D:\Proteus\Proteus练习\新建文件夹\NO2.C
	.blkb 2
	.area idata
	.byte 40,24
	.area data(ram, con, rel)
	.dbfile D:\Proteus\Proteus练习\新建文件夹\NO2.C
	.blkb 2
	.area idata
	.byte 0,0
	.area data(ram, con, rel)
	.dbfile D:\Proteus\Proteus练习\新建文件夹\NO2.C
	.blkb 2
	.area idata
	.byte 0,0
	.area data(ram, con, rel)
	.dbfile D:\Proteus\Proteus练习\新建文件夹\NO2.C
	.blkb 2
	.area idata
	.byte 255,0
	.area data(ram, con, rel)
	.dbfile D:\Proteus\Proteus练习\新建文件夹\NO2.C
	.blkb 2
	.area idata
	.byte 0,8
	.area data(ram, con, rel)
	.dbfile D:\Proteus\Proteus练习\新建文件夹\NO2.C
	.blkb 2
	.area idata
	.byte 4,'C
	.area data(ram, con, rel)
	.dbfile D:\Proteus\Proteus练习\新建文件夹\NO2.C
	.blkb 2
	.area idata
	.byte 128,127
	.area data(ram, con, rel)
	.dbfile D:\Proteus\Proteus练习\新建文件夹\NO2.C
	.blkb 2
	.area idata
	.byte 0,1
	.area data(ram, con, rel)
	.dbfile D:\Proteus\Proteus练习\新建文件夹\NO2.C
	.blkb 2
	.area idata
	.byte 6,12
	.area data(ram, con, rel)
	.dbfile D:\Proteus\Proteus练习\新建文件夹\NO2.C
	.blkb 2
	.area idata
	.byte 0,0
	.area data(ram, con, rel)
	.dbfile D:\Proteus\Proteus练习\新建文件夹\NO2.C
	.blkb 2
	.area idata
	.byte 32,36
	.area data(ram, con, rel)
	.dbfile D:\Proteus\Proteus练习\新建文件夹\NO2.C
	.blkb 2
	.area idata
	.byte 36,36
	.area data(ram, con, rel)
	.dbfile D:\Proteus\Proteus练习\新建文件夹\NO2.C
	.blkb 2
	.area idata
	.byte 254,35
	.area data(ram, con, rel)
	.dbfile D:\Proteus\Proteus练习\新建文件夹\NO2.C
	.blkb 2
	.area idata
	.byte 34,32
	.area data(ram, con, rel)
	.dbfile D:\Proteus\Proteus练习\新建文件夹\NO2.C
	.blkb 2
	.area idata
	.byte 255,32
	.area data(ram, con, rel)
	.dbfile D:\Proteus\Proteus练习\新建文件夹\NO2.C
	.blkb 2
	.area idata
	.byte 34,172
	.area data(ram, con, rel)
	.dbfile D:\Proteus\Proteus练习\新建文件夹\NO2.C
	.blkb 2
	.area idata
	.byte 32,48
	.area data(ram, con, rel)
	.dbfile D:\Proteus\Proteus练习\新建文件夹\NO2.C
	.blkb 2
	.area idata
	.byte 32,0
	.area data(ram, con, rel)
	.dbfile D:\Proteus\Proteus练习\新建文件夹\NO2.C
	.blkb 2
	.area idata
	.byte 0,8
	.area data(ram, con, rel)
	.dbfile D:\Proteus\Proteus练习\新建文件夹\NO2.C
	.blkb 2
	.area idata
	.byte 'H,132
	.area data(ram, con, rel)
	.dbfile D:\Proteus\Proteus练习\新建文件夹\NO2.C
	.blkb 2
	.area idata
	.byte 127,2
	.area data(ram, con, rel)
	.dbfile D:\Proteus\Proteus练习\新建文件夹\NO2.C
	.blkb 2
	.area idata
	.byte 33,16
	.area data(ram, con, rel)
	.dbfile D:\Proteus\Proteus练习\新建文件夹\NO2.C
	.blkb 2
	.area idata
	.byte 9,6
	.area data(ram, con, rel)
	.dbfile D:\Proteus\Proteus练习\新建文件夹\NO2.C
	.blkb 2
	.area idata
	.byte 26,'a
	.area data(ram, con, rel)
	.dbfile D:\Proteus\Proteus练习\新建文件夹\NO2.C
	.blkb 2
	.area idata
	.byte 128,224
	.area data(ram, con, rel)
	.dbfile D:\Proteus\Proteus练习\新建文件夹\NO2.C
	.blkb 2
	.area idata
	.byte 0,0
	.area data(ram, con, rel)
	.dbfile D:\Proteus\Proteus练习\新建文件夹\NO2.C
	.blkb 32
	.area idata
	.word 0,0,0,0,0
	.word 0,0,0,0,0
	.word 0,0,0,0,0
	.byte 0,0
	.area data(ram, con, rel)
	.dbfile D:\Proteus\Proteus练习\新建文件夹\NO2.C
	.dbsym e time_logo _time_logo A[160:5:32]c
_menu::
	.blkb 2
	.area idata
	.byte 128,128
	.area data(ram, con, rel)
	.dbfile D:\Proteus\Proteus练习\新建文件夹\NO2.C
	.blkb 2
	.area idata
	.byte 128,128
	.area data(ram, con, rel)
	.dbfile D:\Proteus\Proteus练习\新建文件夹\NO2.C
	.blkb 2
	.area idata
	.byte 128,128
	.area data(ram, con, rel)
	.dbfile D:\Proteus\Proteus练习\新建文件夹\NO2.C
	.blkb 2
	.area idata
	.byte 128,128
	.area data(ram, con, rel)
	.dbfile D:\Proteus\Proteus练习\新建文件夹\NO2.C
	.blkb 2
	.area idata
	.byte 128,128
	.area data(ram, con, rel)
	.dbfile D:\Proteus\Proteus练习\新建文件夹\NO2.C
	.blkb 2
	.area idata
	.byte 128,128
	.area data(ram, con, rel)
	.dbfile D:\Proteus\Proteus练习\新建文件夹\NO2.C
	.blkb 2
	.area idata
	.byte 128,192
	.area data(ram, con, rel)
	.dbfile D:\Proteus\Proteus练习\新建文件夹\NO2.C
	.blkb 2
	.area idata
	.byte 128,0
	.area data(ram, con, rel)
	.dbfile D:\Proteus\Proteus练习\新建文件夹\NO2.C
	.blkb 2
	.area idata
	.byte 0,0
	.area data(ram, con, rel)
	.dbfile D:\Proteus\Proteus练习\新建文件夹\NO2.C
	.blkb 2
	.area idata
	.byte 0,0
	.area data(ram, con, rel)
	.dbfile D:\Proteus\Proteus练习\新建文件夹\NO2.C
	.blkb 2
	.area idata
	.byte 0,0
	.area data(ram, con, rel)
	.dbfile D:\Proteus\Proteus练习\新建文件夹\NO2.C
	.blkb 2
	.area idata
	.byte 0,0
	.area data(ram, con, rel)
	.dbfile D:\Proteus\Proteus练习\新建文件夹\NO2.C
	.blkb 2
	.area idata
	.byte 0,0
	.area data(ram, con, rel)
	.dbfile D:\Proteus\Proteus练习\新建文件夹\NO2.C
	.blkb 2
	.area idata
	.byte 0,0
	.area data(ram, con, rel)
	.dbfile D:\Proteus\Proteus练习\新建文件夹\NO2.C
	.blkb 2
	.area idata
	.byte 0,0
	.area data(ram, con, rel)
	.dbfile D:\Proteus\Proteus练习\新建文件夹\NO2.C
	.blkb 2
	.area idata
	.byte 0,0
	.area data(ram, con, rel)
	.dbfile D:\Proteus\Proteus练习\新建文件夹\NO2.C
	.blkb 2
	.area idata
	.byte 0,0
	.area data(ram, con, rel)
	.dbfile D:\Proteus\Proteus练习\新建文件夹\NO2.C
	.blkb 2
	.area idata
	.byte 8,8
	.area data(ram, con, rel)
	.dbfile D:\Proteus\Proteus练习\新建文件夹\NO2.C
	.blkb 2
	.area idata
	.byte 8,8
	.area data(ram, con, rel)
	.dbfile D:\Proteus\Proteus练习\新建文件夹\NO2.C
	.blkb 2
	.area idata
	.byte 8,8
	.area data(ram, con, rel)
	.dbfile D:\Proteus\Proteus练习\新建文件夹\NO2.C
	.blkb 2
	.area idata
	.byte 8,8
	.area data(ram, con, rel)
	.dbfile D:\Proteus\Proteus练习\新建文件夹\NO2.C
	.blkb 2
	.area idata
	.byte 8,12
	.area data(ram, con, rel)
	.dbfile D:\Proteus\Proteus练习\新建文件夹\NO2.C
	.blkb 2
	.area idata
	.byte 8,0
	.area data(ram, con, rel)
	.dbfile D:\Proteus\Proteus练习\新建文件夹\NO2.C
	.blkb 2
	.area idata
	.byte 0,0
	.area data(ram, con, rel)
	.dbfile D:\Proteus\Proteus练习\新建文件夹\NO2.C
	.blkb 2
	.area idata
	.byte 16,16
	.area data(ram, con, rel)
	.dbfile D:\Proteus\Proteus练习\新建文件夹\NO2.C
	.blkb 2
	.area idata
	.byte 16,16
	.area data(ram, con, rel)
	.dbfile D:\Proteus\Proteus练习\新建文件夹\NO2.C
	.blkb 2
	.area idata
	.byte 16,16
	.area data(ram, con, rel)
	.dbfile D:\Proteus\Proteus练习\新建文件夹\NO2.C
	.blkb 2
	.area idata
	.byte 16,16
	.area data(ram, con, rel)
	.dbfile D:\Proteus\Proteus练习\新建文件夹\NO2.C
	.blkb 2
	.area idata
	.byte 16,16
	.area data(ram, con, rel)
	.dbfile D:\Proteus\Proteus练习\新建文件夹\NO2.C
	.blkb 2
	.area idata
	.byte 16,16
	.area data(ram, con, rel)
	.dbfile D:\Proteus\Proteus练习\新建文件夹\NO2.C
	.blkb 2
	.area idata
	.byte 16,16
	.area data(ram, con, rel)
	.dbfile D:\Proteus\Proteus练习\新建文件夹\NO2.C
	.blkb 2
	.area idata
	.byte 16,0
	.area data(ram, con, rel)
	.dbfile D:\Proteus\Proteus练习\新建文件夹\NO2.C
	.blkb 2
	.area idata
	.byte 0,4
	.area data(ram, con, rel)
	.dbfile D:\Proteus\Proteus练习\新建文件夹\NO2.C
	.blkb 2
	.area idata
	.byte 132,132
	.area data(ram, con, rel)
	.dbfile D:\Proteus\Proteus练习\新建文件夹\NO2.C
	.blkb 2
	.area idata
	.byte 132,132
	.area data(ram, con, rel)
	.dbfile D:\Proteus\Proteus练习\新建文件夹\NO2.C
	.blkb 2
	.area idata
	.byte 132,132
	.area data(ram, con, rel)
	.dbfile D:\Proteus\Proteus练习\新建文件夹\NO2.C
	.blkb 2
	.area idata
	.byte 132,132
	.area data(ram, con, rel)
	.dbfile D:\Proteus\Proteus练习\新建文件夹\NO2.C
	.blkb 2
	.area idata
	.byte 132,196
	.area data(ram, con, rel)
	.dbfile D:\Proteus\Proteus练习\新建文件夹\NO2.C
	.blkb 2
	.area idata
	.byte 134,4
	.area data(ram, con, rel)
	.dbfile D:\Proteus\Proteus练习\新建文件夹\NO2.C
	.blkb 2
	.area idata
	.byte 0,0
	.area data(ram, con, rel)
	.dbfile D:\Proteus\Proteus练习\新建文件夹\NO2.C
	.blkb 2
	.area idata
	.byte 32,32
	.area data(ram, con, rel)
	.dbfile D:\Proteus\Proteus练习\新建文件夹\NO2.C
	.blkb 2
	.area idata
	.byte 32,32
	.area data(ram, con, rel)
	.dbfile D:\Proteus\Proteus练习\新建文件夹\NO2.C
	.blkb 2
	.area idata
	.byte 32,32
	.area data(ram, con, rel)
	.dbfile D:\Proteus\Proteus练习\新建文件夹\NO2.C
	.blkb 2
	.area idata
	.byte 32,32
	.area data(ram, con, rel)
	.dbfile D:\Proteus\Proteus练习\新建文件夹\NO2.C
	.blkb 2
	.area idata
	.byte 32,32
	.area data(ram, con, rel)
	.dbfile D:\Proteus\Proteus练习\新建文件夹\NO2.C
	.blkb 2
	.area idata
	.byte 32,32
	.area data(ram, con, rel)
	.dbfile D:\Proteus\Proteus练习\新建文件夹\NO2.C
	.blkb 2
	.area idata
	.byte 32,48
	.area data(ram, con, rel)
	.dbfile D:\Proteus\Proteus练习\新建文件夹\NO2.C
	.blkb 2
	.area idata
	.byte 32,0
	.area data(ram, con, rel)
	.dbfile D:\Proteus\Proteus练习\新建文件夹\NO2.C
	.blkb 2
	.area idata
	.byte 0,252
	.area data(ram, con, rel)
	.dbfile D:\Proteus\Proteus练习\新建文件夹\NO2.C
	.blkb 2
	.area idata
	.byte 4,4
	.area data(ram, con, rel)
	.dbfile D:\Proteus\Proteus练习\新建文件夹\NO2.C
	.blkb 2
	.area idata
	.byte 4,252
	.area data(ram, con, rel)
	.dbfile D:\Proteus\Proteus练习\新建文件夹\NO2.C
	.blkb 2
	.area idata
	.byte 4,4
	.area data(ram, con, rel)
	.dbfile D:\Proteus\Proteus练习\新建文件夹\NO2.C
	.blkb 2
	.area idata
	.byte 4,252
	.area data(ram, con, rel)
	.dbfile D:\Proteus\Proteus练习\新建文件夹\NO2.C
	.blkb 2
	.area idata
	.byte 4,4
	.area data(ram, con, rel)
	.dbfile D:\Proteus\Proteus练习\新建文件夹\NO2.C
	.blkb 2
	.area idata
	.byte 4,254
	.area data(ram, con, rel)
	.dbfile D:\Proteus\Proteus练习\新建文件夹\NO2.C
	.blkb 2
	.area idata
	.byte 4,0
	.area data(ram, con, rel)
	.dbfile D:\Proteus\Proteus练习\新建文件夹\NO2.C
	.blkb 2
	.area idata
	.byte 0,127
	.area data(ram, con, rel)
	.dbfile D:\Proteus\Proteus练习\新建文件夹\NO2.C
	.blkb 2
	.area idata
	.byte 32,40
	.area data(ram, con, rel)
	.dbfile D:\Proteus\Proteus练习\新建文件夹\NO2.C
	.blkb 2
	.area idata
	.byte 36,35
	.area data(ram, con, rel)
	.dbfile D:\Proteus\Proteus练习\新建文件夹\NO2.C
	.blkb 2
	.area idata
	.byte 32,32
	.area data(ram, con, rel)
	.dbfile D:\Proteus\Proteus练习\新建文件夹\NO2.C
	.blkb 2
	.area idata
	.byte 32,33
	.area data(ram, con, rel)
	.dbfile D:\Proteus\Proteus练习\新建文件夹\NO2.C
	.blkb 2
	.area idata
	.byte 32,34
	.area data(ram, con, rel)
	.dbfile D:\Proteus\Proteus练习\新建文件夹\NO2.C
	.blkb 2
	.area idata
	.byte 34,127
	.area data(ram, con, rel)
	.dbfile D:\Proteus\Proteus练习\新建文件夹\NO2.C
	.blkb 2
	.area idata
	.byte 0,0
	.area data(ram, con, rel)
	.dbfile D:\Proteus\Proteus练习\新建文件夹\NO2.C
	.blkb 32
	.area idata
	.word 0,0,0,0,0
	.word 0,0,0,0,0
	.word 0,0,0,0,0
	.byte 0,0
	.area data(ram, con, rel)
	.dbfile D:\Proteus\Proteus练习\新建文件夹\NO2.C
	.dbsym e menu _menu A[160:5:32]c
	.area text(rom, con, rel)
	.dbfile D:\Proteus\Proteus练习\新建文件夹\NO2.C
	.dbfunc e delay_1us _delay_1us fV
	.even
_delay_1us::
	.dbline -1
	.dbline 71
; #include <iom16v.h>
; #include <macros.h>
; 
; #define uchar unsigned char
; #define uint  unsigned int
; #define LEFT 0
; #define RIGHT 1
; #define CMD 0
; #define DATA 1
; #define LCD_STATUS_BUSY 0x80
; #define  START_LINE0   0xc0
; #define  DISPLAY_ON    0x3f
; #define  DISPLAY_OFF   0x3e
; #define  PARA1         0x40
; /*-----------------------------------------------------------------------
; 延时函数
; 系统时钟：8M
; -----------------------------------------------------------------------*/
; 
; uchar  time_logo[5][32] = {
; /*--  文字:  时  --*/
; /*--  宋体12;  此字体下对应的点阵为：宽x高=16x16   --*/
; 0x00,0xFC,0x44,0x44,0x44,0xFC,0x10,0x90,0x10,0x10,0x10,0xFF,0x10,0x10,0x10,0x00,
; 0x00,0x07,0x04,0x04,0x04,0x07,0x00,0x00,0x03,0x40,0x80,0x7F,0x00,0x00,0x00,0x00,
; 
; /*--  文字:  爱 --*/
; /*--  宋体12;  此字体下对应的点阵为：宽x高=16x16   --*/
; 0x40,0xB0,0x92,0x96,0x9A,0x92,0xF2,0x9E,0x92,0x91,0x99,0x95,0x91,0x50,0x30,0x00,
; 0x00,0x00,0x40,0x30,0x8C,0x83,0x46,0x2A,0x12,0x2A,0x26,0x42,0xC0,0x40,0x00,0x00,
; 
; /*--  文字:  你 --*/
; /*--  宋体12;  此字体下对应的点阵为：宽x高=16x16   --*/
; 0x40,0x20,0xF8,0x07,0x40,0x20,0x18,0x0F,0x08,0xC8,0x08,0x08,0x28,0x18,0x00,0x00,
; 0x00,0x00,0xFF,0x00,0x00,0x08,0x04,0x43,0x80,0x7F,0x00,0x01,0x06,0x0C,0x00,0x00,
; /*--  文字:  我  --*/
; /*--  宋体12;  此字体下对应的点阵为：宽x高=16x16   --*/
; 0x20,0x24,0x24,0x24,0xfe,0x23,0x22,0x20,0xFF,0x20,0x22,0xac,0x20,0x30,0x20,0x00,
; 0x00,0x08,0x48,0x84,0x7F,0x02,0x21,0x10,0x09,0x06,0x1A,0x61,0x80,0xE0,0x00,0x00,
; 
; };
; 
; uchar  menu[5][32] = {
; /*--  文字: 一 --*/
; /*--  宋体12;  此字体下对应的点阵为：宽x高=16x16   --*/
; 0x80,0x80,0x80,0x80,0x80,0x80,0x80,0x80,0x80,0x80,0x80,0x80,0x80,0xc0,0x80,0x00,
; 0x00,0x00,0x00,0x00,0x00,0x00,0x00,0x00,0x00,0x00,0x00,0x00,0x00,0x00,0x00,0x00,
; /*--  文字: 二 --*/
; /*--  宋体12;  此字体下对应的点阵为：宽x高=16x16   --*/
; 0x00,0x00,0x08,0x08,0x08,0x08,0x08,0x08,0x08,0x08,0x008,0x0c,0x08,0x00,0x00,0x00,
; 0x10,0x10,0x10,0x10,0x10,0x10,0x10,0x10,0x10,0x10,0x10,0x10,0x10,0x10,0x10,0x00,
; /*--  文字: 三 --*/
; /*--  宋体12;  此字体下对应的点阵为：宽x高=16x16   --*/
; 0x00,0x04,0x84,0x84,0x84,0x84,0x84,0x84,0x84,0x84,0x084,0xc4,0x86,0x04,0x00,0x00,
; 0x20,0x20,0x20,0x20,0x20,0x20,0x20,0x20,0x20,0x20,0x20,0x20,0x20,0x30,0x20,0x00,
; /*--  文字: 四 --*/
; /*--  宋体12;  此字体下对应的点阵为：宽x高=16x16   --*/
; 0x00,0xfc,0x04,0x04,0x04,0xfc,0x04,0x04,0x04,0xfc,0x004,0x04,0x04,0xfe,0x04,0x00,
; 0x00,0x7f,0x20,0x28,0x24,0x23,0x20,0x20,0x20,0x21,0x20,0x22,0x22,0x7f,0x00,0x00,
; 
; };
; 
;  
;  void delay_1us(void);                 //1us延时函数
;  void delay_nus(unsigned int n);       //N us延时函数
;  void delay_1ms(void) ;                //1ms延时函数
;  void delay_nms(unsigned int n) ;      //N ms延时函数
;  
;  /***********************************************************************/
;  /**********************************************************************/
; void delay_1us(void)                 //1us延时函数
;   {
	.dbline 72
;    asm("nop");
	nop
	.dbline -2
L1:
	.dbline 0 ; func end
	ret
	.dbend
	.dbfunc e delay_nus _delay_nus fV
;              i -> R10,R11
;              n -> R12,R13
	.even
_delay_nus::
	xcall push_xgset003C
	movw R12,R16
	.dbline -1
	.dbline 76
;   }
; 
; void delay_nus(unsigned int n)       //N us延时函数
;   {
	.dbline 77
;    unsigned int i=0;
	clr R10
	clr R11
	.dbline 78
;    for (i=0;i<n;i++)
	xjmp L6
L3:
	.dbline 79
;    delay_1us();
	xcall _delay_1us
L4:
	.dbline 78
	movw R24,R10
	adiw R24,1
	movw R10,R24
L6:
	.dbline 78
	cp R10,R12
	cpc R11,R13
	brlo L3
X0:
	.dbline -2
L2:
	.dbline 0 ; func end
	xjmp pop_xgset003C
	.dbsym r i 10 i
	.dbsym r n 12 i
	.dbend
	.dbfunc e delay_1ms _delay_1ms fV
;              i -> R16,R17
	.even
_delay_1ms::
	.dbline -1
	.dbline 83
;   }
;   
; void delay_1ms(void)                 //1ms延时函数
;   {
	.dbline 85
;    unsigned int i;
;    for (i=0;i<1140;i++);
	clr R16
	clr R17
	xjmp L11
L8:
	.dbline 85
L9:
	.dbline 85
	subi R16,255  ; offset = 1
	sbci R17,255
L11:
	.dbline 85
	cpi R16,116
	ldi R30,4
	cpc R17,R30
	brlo L8
X1:
	.dbline -2
L7:
	.dbline 0 ; func end
	ret
	.dbsym r i 16 i
	.dbend
	.dbfunc e delay_nms _delay_nms fV
;              i -> R10,R11
;              n -> R12,R13
	.even
_delay_nms::
	xcall push_xgset003C
	movw R12,R16
	.dbline -1
	.dbline 89
;   }
;   
; void delay_nms(unsigned int n)       //N ms延时函数
;   {
	.dbline 90
;    unsigned int i=0;
	clr R10
	clr R11
	.dbline 91
;    for (i=0;i<n;i++)
	xjmp L16
L13:
	.dbline 92
;    {
	.dbline 93
;       delay_1ms();
	xcall _delay_1ms
	.dbline 94
;    }   
L14:
	.dbline 91
	movw R24,R10
	adiw R24,1
	movw R10,R24
L16:
	.dbline 91
	cp R10,R12
	cpc R11,R13
	brlo L13
X2:
	.dbline -2
L12:
	.dbline 0 ; func end
	xjmp pop_xgset003C
	.dbsym r i 10 i
	.dbsym r n 12 i
	.dbend
	.dbfunc e delay _delay fV
;              i -> R10,R11
;              j -> R12,R13
;             ms -> R16,R17
	.even
_delay::
	xcall push_xgset003C
	.dbline -1
	.dbline 98
;   }
;   
;   void delay(uint ms)
; {
	.dbline 100
;         uint i,j;
; 	for(i=0;i<ms;i++)
	clr R10
	clr R11
	xjmp L21
L18:
	.dbline 101
; 	   {
	.dbline 102
; 	   for(j=0;j<1141;j++);
	clr R12
	clr R13
	xjmp L25
L22:
	.dbline 102
L23:
	.dbline 102
	movw R24,R12
	adiw R24,1
	movw R12,R24
L25:
	.dbline 102
	movw R24,R12
	cpi R24,117
	ldi R30,4
	cpc R25,R30
	brlo L22
X3:
	.dbline 103
;        }
L19:
	.dbline 100
	movw R24,R10
	adiw R24,1
	movw R10,R24
L21:
	.dbline 100
	cp R10,R16
	cpc R11,R17
	brlo L18
X4:
	.dbline -2
L17:
	.dbline 0 ; func end
	xjmp pop_xgset003C
	.dbsym r i 10 i
	.dbsym r j 12 i
	.dbsym r ms 16 i
	.dbend
	.dbfunc e Lcd_Write_Byte _Lcd_Write_Byte fV
;           temp -> R16
	.even
_Lcd_Write_Byte::
	.dbline -1
	.dbline 106
; }
; void Lcd_Write_Byte(uchar temp)
; {   
	.dbline 107
;     PORTB|=BIT(0);
	sbi 0x18,0
	.dbline 108
;     PORTB&=~BIT(1);    //W
	cbi 0x18,1
	.dbline 109
;     PORTB|=BIT(4); //E使能
	sbi 0x18,4
	.dbline 110
;     DDRA=0xff; //a输出
	ldi R24,255
	out 0x1a,R24
	.dbline 111
;     PORTA=temp;
	out 0x1b,R16
	.dbline 112
;     asm("nop");
	nop
	.dbline 113
;     asm("nop");
	nop
	.dbline 114
;     asm("nop");
	nop
	.dbline 115
;     asm("nop");
	nop
	.dbline 116
;     PORTB&=~BIT(4);	 
	cbi 0x18,4
	.dbline 117
;     PORTA=0xff;
	out 0x1b,R24
	.dbline -2
L26:
	.dbline 0 ; func end
	ret
	.dbsym r temp 16 c
	.dbend
	.dbfunc e Lcd_Write_COM _Lcd_Write_COM fV
;            COL -> R16
	.even
_Lcd_Write_COM::
	.dbline -1
	.dbline 120
; }
; void Lcd_Write_COM(uchar COL)
; {   
	.dbline 121
;     PORTB&=~BIT(0);
	cbi 0x18,0
	.dbline 122
;     PORTB&=~BIT(1);    //W
	cbi 0x18,1
	.dbline 123
;     PORTB|=BIT(4); //E使能
	sbi 0x18,4
	.dbline 124
;     DDRA=0xff; //a输出
	ldi R24,255
	out 0x1a,R24
	.dbline 125
;     PORTA=COL;
	out 0x1b,R16
	.dbline 126
;     asm("nop");
	nop
	.dbline 127
;     asm("nop");
	nop
	.dbline 128
;     asm("nop");
	nop
	.dbline 129
;     asm("nop");
	nop
	.dbline 130
;     PORTB&=~BIT(4);	 
	cbi 0x18,4
	.dbline -2
L27:
	.dbline 0 ; func end
	ret
	.dbsym r COL 16 c
	.dbend
	.dbfunc e set_page_L _set_page_L fV
;           page -> R10
	.even
_set_page_L::
	st -y,R10
	mov R10,R16
	.dbline -1
	.dbline 136
;  
; }
; 
; 
; void set_page_L(unsigned char page)	/*设置X地址 设置页*/  //0-7
; {
	.dbline 137
;    Lcd_Write_COM(0xb8|page);                     
	mov R16,R10
	ori R16,184
	xcall _Lcd_Write_COM
	.dbline -2
L28:
	.dbline 0 ; func end
	ld R10,y+
	ret
	.dbsym r page 10 c
	.dbend
	.dbfunc e set_page_R _set_page_R fV
;           page -> R10
	.even
_set_page_R::
	st -y,R10
	mov R10,R16
	.dbline -1
	.dbline 140
; }
; void set_page_R(unsigned char page)	/*设置X地址 设置页*/ //0-7
; {
	.dbline 141
;     Lcd_Write_COM(0xb8|page);                     
	mov R16,R10
	ori R16,184
	xcall _Lcd_Write_COM
	.dbline -2
L29:
	.dbline 0 ; func end
	ld R10,y+
	ret
	.dbsym r page 10 c
	.dbend
	.dbfunc e set_col_addr_L _set_col_addr_L fV
;            col -> R10
	.even
_set_col_addr_L::
	st -y,R10
	mov R10,R16
	.dbline -1
	.dbline 145
; }
; 
; void set_col_addr_L(unsigned char col) /*设置Y地址*/ //0-63
; {
	.dbline 147
;      
;    Lcd_Write_COM(0x40|col);                     
	mov R16,R10
	ori R16,64
	xcall _Lcd_Write_COM
	.dbline -2
L30:
	.dbline 0 ; func end
	ld R10,y+
	ret
	.dbsym r col 10 c
	.dbend
	.dbfunc e set_col_addr_R _set_col_addr_R fV
;            col -> R10
	.even
_set_col_addr_R::
	st -y,R10
	mov R10,R16
	.dbline -1
	.dbline 151
; }
; 
; void set_col_addr_R(unsigned char col) /*设置Y地址*/ //0-63
; {
	.dbline 152
;     Lcd_Write_COM(0x40|col);                        
	mov R16,R10
	ori R16,64
	xcall _Lcd_Write_COM
	.dbline -2
L31:
	.dbline 0 ; func end
	ld R10,y+
	ret
	.dbsym r col 10 c
	.dbend
	.dbfunc e Lcd_Set_X_Y _Lcd_Set_X_Y fV
;              y -> R12
;              x -> R10
	.even
_Lcd_Set_X_Y::
	st -y,R10
	st -y,R12
	mov R12,R18
	mov R10,R16
	.dbline -1
	.dbline 163
; }
; 
; 
; /********************************************************************************************
; * 函数名称：Lcd_Set_X_Y(uchar x, uchar y )
; * 功    能：LCD设置x y坐标
; * 入口参数：x y
; * 出口参数：无
; *********************************************************************************************/
; void Lcd_Set_X_Y(uchar x, uchar y)
; {   
	.dbline 164
;    if(y<64)
	mov R24,R12
	cpi R24,64
	brsh L33
X5:
	.dbline 165
;       {   PORTB&=~BIT(3);
	.dbline 165
	cbi 0x18,3
	.dbline 166
; 	      PORTB|=BIT(2);
	sbi 0x18,2
	.dbline 168
; 	   
; 		set_col_addr_L(y);
	mov R16,R24
	xcall _set_col_addr_L
	.dbline 169
; 	  }
	xjmp L34
L33:
	.dbline 171
;    else
;       {   
	.dbline 172
; 		   PORTB|=BIT(3);
	sbi 0x18,3
	.dbline 173
; 	    PORTB&=~BIT(2);
	cbi 0x18,2
	.dbline 174
; 		set_col_addr_R(y);
	mov R16,R12
	xcall _set_col_addr_R
	.dbline 175
; 	  }
L34:
	.dbline 176
;    set_page_L( x);
	mov R16,R10
	xcall _set_page_L
	.dbline 177
;    set_page_R( x);
	mov R16,R10
	xcall _set_page_R
	.dbline -2
L32:
	.dbline 0 ; func end
	ld R12,y+
	ld R10,y+
	ret
	.dbsym r y 12 c
	.dbsym r x 10 c
	.dbend
	.dbfunc e Lcd_Character_16X16 _Lcd_Character_16X16 fV
;           temp -> y+0
;              i -> R10
;              j -> R12
;          point -> y+11
;              y -> R14
;              x -> y+7
;       bit_flag -> R10
	.even
_Lcd_Character_16X16::
	st -y,r19
	st -y,r18
	xcall push_xgset00FC
	mov R10,R16
	sbiw R28,1
	ldd R14,y+9
	.dbline -1
	.dbline 188
; }
; 
; /****************************************************************************
; * 名称：Lcd_Character_16X16( bit bit_flag, uchar x, uchar y, uchar code *point )
; * 功能：显示16*16字符（汉字）       
; * 入口参数：x y data
; * 出口参数：无
; *说明:bit_flag = 1 正常显示 bit_flag = 0 黑白反相显示
; ****************************************************************************/
; void Lcd_Character_16X16( uchar bit_flag, uchar x, uchar y, uchar  *point )
; {
	.dbline 190
;    uchar i,j,temp ;
;    temp=y;
	std y+0,R14
	.dbline 191
;    if( bit_flag )
	tst R10
	breq L36
X6:
	.dbline 192
;    {
	.dbline 193
;       for( i=0; i<2; i++ )
	clr R10
	xjmp L41
L38:
	.dbline 194
;       {
	.dbline 195
;          x+=i;
	ldd R0,y+7
	add R0,R10
	std y+7,R0
	.dbline 196
; 	     y=temp;
	ldd R14,y+0
	.dbline 197
;          for( j=0;j<16;j++ )
	clr R12
	xjmp L45
L42:
	.dbline 198
;          {
	.dbline 199
;             Lcd_Set_X_Y( x, y ); y++;
	mov R18,R14
	ldd R16,y+7
	xcall _Lcd_Set_X_Y
	.dbline 199
	inc R14
	.dbline 200
;             Lcd_Write_Byte( point[ i*16 + j] );  
	ldi R24,16
	mul R24,R10
	movw R30,R0
	mov R2,R12
	clr R3
	add R30,R2
	adc R31,R3
	ldd R0,y+11
	ldd R1,y+12
	add R30,R0
	adc R31,R1
	ldd R16,z+0
	xcall _Lcd_Write_Byte
	.dbline 201
;          } 
L43:
	.dbline 197
	inc R12
L45:
	.dbline 197
	mov R24,R12
	cpi R24,16
	brlo L42
X7:
	.dbline 202
;       }
L39:
	.dbline 193
	inc R10
L41:
	.dbline 193
	mov R24,R10
	cpi R24,2
	brlo L38
X8:
	.dbline 203
;    }
	xjmp L37
L36:
	.dbline 205
;    else
;    {
	.dbline 206
;       for( i =0; i<2; i++ )
	clr R10
	xjmp L49
L46:
	.dbline 207
;       {
	.dbline 208
;          x+=i;
	ldd R0,y+7
	add R0,R10
	std y+7,R0
	.dbline 209
;          y=temp;
	ldd R14,y+0
	.dbline 210
;          for( j = 0; j < 16; j++ )
	clr R12
	xjmp L53
L50:
	.dbline 211
;          {
	.dbline 212
;             Lcd_Set_X_Y( x, y );
	mov R18,R14
	ldd R16,y+7
	xcall _Lcd_Set_X_Y
	.dbline 213
; 			y++;
	inc R14
	.dbline 214
;             Lcd_Write_Byte( ~ point[ i * 16 + j ] );
	ldi R24,16
	mul R24,R10
	movw R30,R0
	mov R2,R12
	clr R3
	add R30,R2
	adc R31,R3
	ldd R0,y+11
	ldd R1,y+12
	add R30,R0
	adc R31,R1
	ldd R16,z+0
	com R16
	xcall _Lcd_Write_Byte
	.dbline 216
; 			
;          }
L51:
	.dbline 210
	inc R12
L53:
	.dbline 210
	mov R24,R12
	cpi R24,16
	brlo L50
X9:
	.dbline 218
; 		
;       }
L47:
	.dbline 206
	inc R10
L49:
	.dbline 206
	mov R24,R10
	cpi R24,2
	brlo L46
X10:
	.dbline 219
;    }
L37:
	.dbline -2
L35:
	.dbline 0 ; func end
	adiw R28,1
	xcall pop_xgset00FC
	adiw R28,2
	ret
	.dbsym l temp 0 c
	.dbsym r i 10 c
	.dbsym r j 12 c
	.dbsym l point 11 pc
	.dbsym r y 14 c
	.dbsym l x 7 c
	.dbsym r bit_flag 10 c
	.dbend
	.dbfunc e key_press _key_press fc
;              j -> R16
	.even
_key_press::
	.dbline -1
	.dbline 222
; }
; uchar key_press()
; {
	.dbline 224
;     uchar j;
;     DDRD|=0X0F;
	in R24,0x11
	ori R24,15
	out 0x11,R24
	.dbline 225
; 	PORTD|=0X0F;
	in R24,0x12
	ori R24,15
	out 0x12,R24
	.dbline 227
; 	
; 	DDRD&=0XF0;
	in R24,0x11
	andi R24,240
	out 0x11,R24
	.dbline 229
; 	
; 	j=PIND;
	in R16,0x10
	.dbline 230
; 	j=j&0X0F;//00001111
	andi R16,15
	.dbline 231
; 	if(j==0X0F)
	cpi R16,15
	brne L55
X11:
	.dbline 232
; 	{
	.dbline 233
; 	  return 0;
	clr R16
	xjmp L54
L55:
	.dbline 236
; 	}
; 	else
; 	{
	.dbline 237
; 	 return 1;
	ldi R16,1
	.dbline -2
L54:
	.dbline 0 ; func end
	ret
	.dbsym r j 16 c
	.dbend
	.dbfunc e key_scan _key_scan fc
;            key -> R10
	.even
_key_scan::
	xcall push_xgset003C
	.dbline -1
	.dbline 243
; 	}
; 	
; }
; 
; uchar key_scan()
; {
	.dbline 245
;     uchar key;
;     delay(10);
	ldi R16,10
	ldi R17,0
	xcall _delay
	.dbline 246
; 	if(key_press())
	xcall _key_press
	tst R16
	breq L58
X12:
	.dbline 247
; 	{
	.dbline 248
; 	key=PIND;
	in R10,0x10
	.dbline 249
; 	key&=0X0F;
	mov R24,R10
	andi R24,15
	mov R10,R24
	.dbline 250
; 	switch(key)
	mov R12,R24
	clr R13
	movw R24,R12
	cpi R24,7
	ldi R30,0
	cpc R25,R30
	breq L66
X13:
	cpi R24,11
	ldi R30,0
	cpc R25,R30
	breq L65
X14:
	cpi R24,13
	ldi R30,0
	cpc R25,R30
	breq L64
X15:
	cpi R24,14
	ldi R30,0
	cpc R25,R30
	breq L63
X16:
	xjmp L60
L63:
	.dbline 253
; 	{
; 	   case 0X0E: 
; 	       key=1;
	clr R10
	inc R10
	.dbline 254
; 		   break;
	xjmp L68
L64:
	.dbline 256
; 	   case 0X0D:
; 	       key=2;
	ldi R24,2
	mov R10,R24
	.dbline 257
; 		   break;
	xjmp L68
L65:
	.dbline 259
; 	   	 case 0X0B: 
; 	       key=3;
	ldi R24,3
	mov R10,R24
	.dbline 260
; 		   break;
	xjmp L68
L66:
	.dbline 262
; 	   case 0X07:
; 	       key=4;
	ldi R24,4
	mov R10,R24
	.dbline 263
; 		   break; 
	xjmp L68
L60:
	.dbline 265
; 	   default:	
; 	       key=16;     	   
	ldi R24,16
	mov R10,R24
	.dbline 266
; 	}
L67:
	.dbline 267
; 	  while(key_press());
L68:
	.dbline 267
	xcall _key_press
	tst R16
	brne L67
X17:
	.dbline 268
; 	}
	xjmp L59
L58:
	.dbline 270
; 	else
; 	{
	.dbline 271
; 	  key=16;
	ldi R24,16
	mov R10,R24
	.dbline 272
; 	}
L59:
	.dbline 273
; 	return key;
	mov R16,R10
	.dbline -2
L57:
	.dbline 0 ; func end
	xjmp pop_xgset003C
	.dbsym r key 10 c
	.dbend
	.dbfunc e Lcd_Function _Lcd_Function fV
;              n -> R10
;              m -> R12
;     alarm_flag -> y+5
;      time_flag -> y+4
;           temp -> R14
	.even
_Lcd_Function::
	xcall push_xgset00FC
	mov R14,R16
	sbiw R28,6
	.dbline -1
	.dbline 277
; }
; 
; void Lcd_Function( uchar temp )
; {
	.dbline 278
;    uchar time_flag = 0;
	clr R0
	std y+4,R0
	.dbline 279
;    uchar alarm_flag = 0;
	std y+5,R0
	.dbline 280
;    uchar m=0;
	clr R12
	.dbline 281
;    uchar n=0;
	clr R10
	.dbline 282
;     switch(temp)
	clr R15
	movw R24,R14
	cpi R24,1
	ldi R30,0
	cpc R25,R30
	breq L74
X18:
	cpi R24,2
	ldi R30,0
	cpc R25,R30
	breq L75
X19:
	cpi R24,3
	ldi R30,0
	cpc R25,R30
	breq L76
X20:
	cpi R24,4
	ldi R30,0
	cpc R25,R30
	breq L77
X21:
	xjmp L71
L74:
	.dbline 284
; 	{case 1:
; 	  time_flag = 1; break;
	clr R0
	inc R0
	std y+4,R0
	.dbline 284
	xjmp L72
L75:
	.dbline 286
; 	 case 2:
; 	  alarm_flag= 1; break;
	clr R0
	inc R0
	std y+5,R0
	.dbline 286
	xjmp L72
L76:
	.dbline 288
; 	 case 3:
; 	   m=1; break;
	clr R12
	inc R12
	.dbline 288
	xjmp L72
L77:
	.dbline 290
; 	 case 4:
; 	   n=1; break;
	clr R10
	inc R10
	.dbline 290
L71:
	.dbline 292
; 	 default:
; 	  ;
	.dbline 294
; 
; 	}
L72:
	.dbline 297
; 
;    //时间设置
;    Lcd_Character_16X16( time_flag, 0, 0, time_logo[3] );
	ldi R24,<_time_logo+96
	ldi R25,>_time_logo+96
	std y+3,R25
	std y+2,R24
	clr R2
	std y+0,R2
	clr R18
	ldd R16,y+4
	xcall _Lcd_Character_16X16
	.dbline 298
;    Lcd_Character_16X16( time_flag, 0, 16, time_logo[1] );
	ldi R24,<_time_logo+32
	ldi R25,>_time_logo+32
	std y+3,R25
	std y+2,R24
	ldi R24,16
	std y+0,R24
	clr R18
	ldd R16,y+4
	xcall _Lcd_Character_16X16
	.dbline 299
;    Lcd_Character_16X16( time_flag, 0, 32, time_logo[2] );
	ldi R24,<_time_logo+64
	ldi R25,>_time_logo+64
	std y+3,R25
	std y+2,R24
	ldi R24,32
	std y+0,R24
	clr R18
	ldd R16,y+4
	xcall _Lcd_Character_16X16
	.dbline 300
;    Lcd_Character_16X16( time_flag, 0, 48, menu[0] );
	ldi R24,<_menu
	ldi R25,>_menu
	std y+3,R25
	std y+2,R24
	ldi R24,48
	std y+0,R24
	clr R18
	ldd R16,y+4
	xcall _Lcd_Character_16X16
	.dbline 302
;    //闹钟设置
;    Lcd_Character_16X16( alarm_flag, 2, 0, time_logo[3] );
	ldi R24,<_time_logo+96
	ldi R25,>_time_logo+96
	std y+3,R25
	std y+2,R24
	clr R2
	std y+0,R2
	ldi R18,2
	ldd R16,y+5
	xcall _Lcd_Character_16X16
	.dbline 303
;    Lcd_Character_16X16( alarm_flag, 2, 16, time_logo[1] );
	ldi R24,<_time_logo+32
	ldi R25,>_time_logo+32
	std y+3,R25
	std y+2,R24
	ldi R24,16
	std y+0,R24
	ldi R18,2
	ldd R16,y+5
	xcall _Lcd_Character_16X16
	.dbline 304
;    Lcd_Character_16X16( alarm_flag, 2, 32, time_logo[2] );
	ldi R24,<_time_logo+64
	ldi R25,>_time_logo+64
	std y+3,R25
	std y+2,R24
	ldi R24,32
	std y+0,R24
	ldi R18,2
	ldd R16,y+5
	xcall _Lcd_Character_16X16
	.dbline 305
;    Lcd_Character_16X16( alarm_flag, 2, 48, menu[1] );
	ldi R24,<_menu+32
	ldi R25,>_menu+32
	std y+3,R25
	std y+2,R24
	ldi R24,48
	std y+0,R24
	ldi R18,2
	ldd R16,y+5
	xcall _Lcd_Character_16X16
	.dbline 307
;    
;    Lcd_Character_16X16( m, 4, 0, time_logo[3] );
	ldi R24,<_time_logo+96
	ldi R25,>_time_logo+96
	std y+3,R25
	std y+2,R24
	clr R2
	std y+0,R2
	ldi R18,4
	mov R16,R12
	xcall _Lcd_Character_16X16
	.dbline 308
;    Lcd_Character_16X16( m, 4, 16, time_logo[1] );
	ldi R24,<_time_logo+32
	ldi R25,>_time_logo+32
	std y+3,R25
	std y+2,R24
	ldi R24,16
	std y+0,R24
	ldi R18,4
	mov R16,R12
	xcall _Lcd_Character_16X16
	.dbline 309
;    Lcd_Character_16X16( m, 4, 32, time_logo[2] );
	ldi R24,<_time_logo+64
	ldi R25,>_time_logo+64
	std y+3,R25
	std y+2,R24
	ldi R24,32
	std y+0,R24
	ldi R18,4
	mov R16,R12
	xcall _Lcd_Character_16X16
	.dbline 310
;    Lcd_Character_16X16( m, 4, 48, menu[2] );
	ldi R24,<_menu+64
	ldi R25,>_menu+64
	std y+3,R25
	std y+2,R24
	ldi R24,48
	std y+0,R24
	ldi R18,4
	mov R16,R12
	xcall _Lcd_Character_16X16
	.dbline 312
;    
;    Lcd_Character_16X16( n, 6, 0, time_logo[3] );
	ldi R24,<_time_logo+96
	ldi R25,>_time_logo+96
	std y+3,R25
	std y+2,R24
	clr R2
	std y+0,R2
	ldi R18,6
	mov R16,R10
	xcall _Lcd_Character_16X16
	.dbline 313
;    Lcd_Character_16X16( n, 6, 16, time_logo[1] );
	ldi R24,<_time_logo+32
	ldi R25,>_time_logo+32
	std y+3,R25
	std y+2,R24
	ldi R24,16
	std y+0,R24
	ldi R18,6
	mov R16,R10
	xcall _Lcd_Character_16X16
	.dbline 314
;    Lcd_Character_16X16( n, 6, 32, time_logo[2] );
	ldi R24,<_time_logo+64
	ldi R25,>_time_logo+64
	std y+3,R25
	std y+2,R24
	ldi R24,32
	std y+0,R24
	ldi R18,6
	mov R16,R10
	xcall _Lcd_Character_16X16
	.dbline 315
;    Lcd_Character_16X16( n, 6, 48, menu[3] );
	ldi R24,<_menu+96
	ldi R25,>_menu+96
	std y+3,R25
	std y+2,R24
	ldi R24,48
	std y+0,R24
	ldi R18,6
	mov R16,R10
	xcall _Lcd_Character_16X16
	.dbline -2
L70:
	.dbline 0 ; func end
	adiw R28,6
	xjmp pop_xgset00FC
	.dbsym r n 10 c
	.dbsym r m 12 c
	.dbsym l alarm_flag 5 c
	.dbsym l time_flag 4 c
	.dbsym r temp 14 c
	.dbend
	.dbfunc e main _main fV
;              j -> R12,R13
;              i -> R12,R13
;              k -> R10,R11
	.even
_main::
	.dbline -1
	.dbline 318
; }
; void main()
; {
	.dbline 319
;     unsigned int i,j,k=1;
	ldi R24,1
	ldi R25,0
	movw R10,R24
	.dbline 321
;    //init_port();//自己加,主要是控制线所在端口为输出
;     DDRB = 0xff; 
	ldi R24,255
	out 0x17,R24
	.dbline 322
; 	Lcd_Function(1);
	ldi R16,1
	xcall _Lcd_Function
	xjmp L95
L94:
	.dbline 325
; 	
; 	while(1)
; 	{   i=key_press();
	.dbline 325
	xcall _key_press
	mov R12,R16
	clr R13
	.dbline 326
; 	if(i)
	tst R12
	brne X22
	tst R13
	breq L97
X22:
	.dbline 327
; 	{
	.dbline 328
; 	 j=key_scan();
	xcall _key_scan
	mov R12,R16
	clr R13
	.dbline 329
; 	switch(j)
	movw R24,R12
	cpi R24,1
	ldi R30,0
	cpc R25,R30
	breq L101
X23:
	cpi R24,2
	ldi R30,0
	cpc R25,R30
	breq L102
X24:
	xjmp L99
L101:
	.dbline 332
; 	  {
; 	   case 1: 
; 	       k=k+1;
	movw R24,R10
	adiw R24,1
	movw R10,R24
	.dbline 333
; 		   break;
	xjmp L100
L102:
	.dbline 335
; 	   case 2:
; 	       k=k-1;
	movw R24,R10
	sbiw R24,1
	movw R10,R24
	.dbline 336
; 		   break;
L99:
	.dbline 338
; 		default:
; 		;
	.dbline 340
; 		
; 	  }  
L100:
	.dbline 342
; 	  
; 	 if(k>4) k=1;
	ldi R24,4
	ldi R25,0
	cp R24,R10
	cpc R25,R11
	brsh L103
X25:
	.dbline 342
	ldi R24,1
	movw R10,R24
L103:
	.dbline 343
; 	 if(k<1) k=4;
	movw R24,R10
	cpi R24,1
	ldi R30,0
	cpc R25,R30
	brsh L105
X26:
	.dbline 343
	ldi R24,4
	ldi R25,0
	movw R10,R24
L105:
	.dbline 345
;      
; 	Lcd_Function(k);
	mov R16,R10
	xcall _Lcd_Function
	.dbline 346
; 	}
L97:
	.dbline 348
; 	 
;    }
L95:
	.dbline 324
	xjmp L94
X27:
	.dbline -2
L93:
	.dbline 0 ; func end
	ret
	.dbsym r j 12 i
	.dbsym r i 12 i
	.dbsym r k 10 i
	.dbend
; }
